; Function Attrs: mustprogress nofree norecurse nosync nounwind willreturn memory(read, inaccessiblemem: none) uwtable
define hidden noundef zeroext i1 @_ZN3smt13theory_recfun13can_propagateEv(ptr nocapture noundef nonnull readonly align 8 dereferenceable(212) %this) unnamed_addr #8 align 2 {
entry:
  %m_qhead = getelementptr inbounds i8, ptr %this, i64 208
  %0 = load i32, ptr %m_qhead, align 8
  %m_propagation_queue = getelementptr inbounds i8, ptr %this, i64 200
  %1 = load ptr, ptr %m_propagation_queue, align 8
  %cmp.i.i = icmp eq ptr %1, null
  br i1 %cmp.i.i, label %_ZNK17scoped_ptr_vectorIN6recfun16propagation_itemEE4sizeEv.exit, label %if.end.i.i

if.end.i.i:                                       ; preds = %entry
  %arrayidx.i.i = getelementptr inbounds i8, ptr %1, i64 -4
  %2 = load i32, ptr %arrayidx.i.i, align 4
  br label %_ZNK17scoped_ptr_vectorIN6recfun16propagation_itemEE4sizeEv.exit

_ZNK17scoped_ptr_vectorIN6recfun16propagation_itemEE4sizeEv.exit: ; preds = %entry, %if.end.i.i
  %retval.0.i.i = phi i32 [ %2, %if.end.i.i ], [ 0, %entry ]
  %cmp = icmp ult i32 %0, %retval.0.i.i
  ret i1 %cmp
}